; Function Attrs: nounwind uwtable
define dso_local ptr @PyMarshal_ReadObjectFromFile(ptr noundef %0) local_unnamed_addr #0 {
  %2 = alloca %struct.RFILE, align 8
  call void @llvm.lifetime.start.p0(i64 72, ptr nonnull %2) #11
  %3 = getelementptr inbounds nuw i8, ptr %2, i64 64
  store i32 1, ptr %3, align 8, !tbaa !47
  store ptr %0, ptr %2, align 8, !tbaa !45
  %4 = getelementptr inbounds nuw i8, ptr %2, i64 16
  %5 = getelementptr inbounds nuw i8, ptr %2, i64 8
  store i32 0, ptr %5, align 8, !tbaa !50
  %6 = getelementptr inbounds nuw i8, ptr %2, i64 40
  call void @llvm.memset.p0.i64(ptr noundef nonnull align 8 dereferenceable(32) %4, i8 0, i64 32, i1 false)
  %7 = tail call ptr @PyList_New(i64 noundef 0) #11
  %8 = getelementptr inbounds nuw i8, ptr %2, i64 56
  store ptr %7, ptr %8, align 8, !tbaa !51
  %9 = icmp eq ptr %7, null
  br i1 %9, label %20, label %10

10:                                               ; preds = %1
  %11 = call fastcc ptr @read_object(ptr noundef %2)
  %12 = load ptr, ptr %8, align 8, !tbaa !51
  %13 = load i32, ptr %12, align 8, !tbaa !25
  %.not.i = icmp sgt i32 %13, -1
  br i1 %.not.i, label %14, label %Py_DECREF.exit

14:                                               ; preds = %10
  %15 = add nsw i32 %13, -1
  store i32 %15, ptr %12, align 8, !tbaa !25
  %16 = icmp eq i32 %15, 0
  br i1 %16, label %17, label %Py_DECREF.exit

17:                                               ; preds = %14
  call void @_Py_Dealloc(ptr noundef nonnull %12) #11
  br label %Py_DECREF.exit

Py_DECREF.exit:                                   ; preds = %10, %14, %17
  %18 = load ptr, ptr %6, align 8, !tbaa !46
  %.not = icmp eq ptr %18, null
  br i1 %.not, label %20, label %19

19:                                               ; preds = %Py_DECREF.exit
  call void @PyMem_Free(ptr noundef nonnull %18) #11
  br label %20

20:                                               ; preds = %Py_DECREF.exit, %19, %1
  %.0 = phi ptr [ null, %1 ], [ %11, %19 ], [ %11, %Py_DECREF.exit ]
  call void @llvm.lifetime.end.p0(i64 72, ptr nonnull %2) #11
  ret ptr %.0
}